#include <math.h>
#include <stdio.h>
#include <stdlib.h>
#include <string.h>

void main()
{
  char a[50];
  char *p,*q;
  int n,i,flag,k;
  scanf("%d\n",&n);
  for(i=0;i<n;i++)
  {gets(a);
  k=0;
  for(p=a;*p!='\0';p++)
  {  flag=0;
       for(q=a;*q!='\0';q++)
		 if(*q==*p) flag+=1;
		if(flag==1&&k==0)
		{
			k+=1;
			printf("%c\n",*p);
		}
		}
		if(k==0) printf("no\n");
  
  
}
     
}

