; ModuleID = 'source-C-CXX/36/408.c'
source_filename = "source-C-CXX/36/408.c"
target datalayout = "e-m:e-p270:32:32-p271:32:32-p272:64:64-i64:64-f80:128-n8:16:32:64-S128"
target triple = "x86_64-pc-linux-gnu"

@.str = private unnamed_addr constant [4 x i8] c"%d\0A\00", align 1
@.str.1 = private unnamed_addr constant [4 x i8] c"%c\0A\00", align 1
@str = private unnamed_addr constant [3 x i8] c"no\00", align 1

; Function Attrs: nounwind sspstrong uwtable
define dso_local void @main() local_unnamed_addr #0 {
  %1 = alloca [50 x i8], align 16
  %2 = alloca i32, align 4
  %3 = getelementptr inbounds [50 x i8], [50 x i8]* %1, i64 0, i64 0
  call void @llvm.lifetime.start.p0i8(i64 50, i8* nonnull %3) #5
  %4 = bitcast i32* %2 to i8*
  call void @llvm.lifetime.start.p0i8(i64 4, i8* nonnull %4) #5
  %5 = call i32 (i8*, ...) @__isoc99_scanf(i8* getelementptr inbounds ([4 x i8], [4 x i8]* @.str, i64 0, i64 0), i32* nonnull %2)
  %6 = load i32, i32* %2, align 4, !tbaa !5
  %7 = icmp sgt i32 %6, 0
  br i1 %7, label %8, label %51

8:                                                ; preds = %0, %47
  %9 = phi i32 [ %48, %47 ], [ 0, %0 ]
  %10 = call i32 (i8*, ...) bitcast (i32 (...)* @gets to i32 (i8*, ...)*)(i8* nonnull %3) #5
  %11 = load i8, i8* %3, align 16, !tbaa !9
  %12 = icmp eq i8 %11, 0
  br i1 %12, label %45, label %13

13:                                               ; preds = %8, %41
  %14 = phi i8 [ %42, %41 ], [ %11, %8 ]
  %15 = phi i8 [ %39, %41 ], [ %11, %8 ]
  %16 = phi i32 [ %37, %41 ], [ 0, %8 ]
  %17 = phi i8* [ %38, %41 ], [ %3, %8 ]
  %18 = icmp eq i8 %14, 0
  br i1 %18, label %36, label %19

19:                                               ; preds = %13, %19
  %20 = phi i8 [ %27, %19 ], [ %14, %13 ]
  %21 = phi i32 [ %25, %19 ], [ 0, %13 ]
  %22 = phi i8* [ %26, %19 ], [ %3, %13 ]
  %23 = icmp eq i8 %20, %15
  %24 = zext i1 %23 to i32
  %25 = add nuw nsw i32 %21, %24
  %26 = getelementptr inbounds i8, i8* %22, i64 1
  %27 = load i8, i8* %26, align 1, !tbaa !9
  %28 = icmp eq i8 %27, 0
  br i1 %28, label %29, label %19, !llvm.loop !10

29:                                               ; preds = %19
  %30 = icmp eq i32 %25, 1
  %31 = icmp eq i32 %16, 0
  %32 = select i1 %30, i1 %31, i1 false
  br i1 %32, label %33, label %36

33:                                               ; preds = %29
  %34 = sext i8 %15 to i32
  %35 = call i32 (i8*, ...) @printf(i8* nonnull dereferenceable(1) getelementptr inbounds ([4 x i8], [4 x i8]* @.str.1, i64 0, i64 0), i32 %34)
  br label %36

36:                                               ; preds = %13, %29, %33
  %37 = phi i32 [ 1, %33 ], [ %16, %29 ], [ %16, %13 ]
  %38 = getelementptr inbounds i8, i8* %17, i64 1
  %39 = load i8, i8* %38, align 1, !tbaa !9
  %40 = icmp eq i8 %39, 0
  br i1 %40, label %43, label %41, !llvm.loop !12

41:                                               ; preds = %36
  %42 = load i8, i8* %3, align 16, !tbaa !9
  br label %13

43:                                               ; preds = %36
  %44 = icmp eq i32 %37, 0
  br i1 %44, label %45, label %47

45:                                               ; preds = %8, %43
  %46 = call i32 @puts(i8* nonnull dereferenceable(1) getelementptr inbounds ([3 x i8], [3 x i8]* @str, i64 0, i64 0))
  br label %47

47:                                               ; preds = %43, %45
  %48 = add nuw nsw i32 %9, 1
  %49 = load i32, i32* %2, align 4, !tbaa !5
  %50 = icmp slt i32 %48, %49
  br i1 %50, label %8, label %51, !llvm.loop !13

51:                                               ; preds = %47, %0
  call void @llvm.lifetime.end.p0i8(i64 4, i8* nonnull %4) #5
  call void @llvm.lifetime.end.p0i8(i64 50, i8* nonnull %3) #5
  ret void
}

; Function Attrs: argmemonly mustprogress nofree nosync nounwind willreturn
declare void @llvm.lifetime.start.p0i8(i64 immarg, i8* nocapture) #1

; Function Attrs: nofree nounwind
declare noundef i32 @__isoc99_scanf(i8* nocapture noundef readonly, ...) local_unnamed_addr #2

declare i32 @gets(...) local_unnamed_addr #3

; Function Attrs: nofree nounwind
declare noundef i32 @printf(i8* nocapture noundef readonly, ...) local_unnamed_addr #2

; Function Attrs: argmemonly mustprogress nofree nosync nounwind willreturn
declare void @llvm.lifetime.end.p0i8(i64 immarg, i8* nocapture) #1

; Function Attrs: nofree nounwind
declare noundef i32 @puts(i8* nocapture noundef readonly) local_unnamed_addr #4


!llvm.module.flags = !{!0, !1, !2, !3}
!llvm.ident = !{!4}

!0 = !{i32 1, !"wchar_size", i32 4}
!1 = !{i32 7, !"PIC Level", i32 2}
!2 = !{i32 7, !"PIE Level", i32 2}
!3 = !{i32 7, !"uwtable", i32 1}
!4 = !{!"clang version 13.0.0"}
!5 = !{!6, !6, i64 0}
!6 = !{!"int", !7, i64 0}
!7 = !{!"omnipotent char", !8, i64 0}
!8 = !{!"Simple C/C++ TBAA"}
!9 = !{!7, !7, i64 0}
!10 = distinct !{!10, !11}
!11 = !{!"llvm.loop.mustprogress"}
!12 = distinct !{!12, !11}
!13 = distinct !{!13, !11}
